; Function Attrs: mustprogress uwtable
define hidden void @_ZN13proof_checker15hyp_decl_plugin8finalizeEv(ptr nocapture noundef nonnull readonly align 8 dereferenceable(56) %this) unnamed_addr #4 align 2 {
entry:
  %m_manager = getelementptr inbounds i8, ptr %this, i64 8
  %0 = load ptr, ptr %m_manager, align 8
  %m_cons = getelementptr inbounds i8, ptr %this, i64 24
  %1 = load ptr, ptr %m_cons, align 8
  %tobool.not.i = icmp eq ptr %1, null
  br i1 %tobool.not.i, label %_ZN11ast_manager7dec_refEP3ast.exit, label %if.then.i

if.then.i:                                        ; preds = %entry
  %m_ref_count.i.i = getelementptr inbounds i8, ptr %1, i64 8
  %2 = load i32, ptr %m_ref_count.i.i, align 4
  %dec.i.i = add i32 %2, -1
  store i32 %dec.i.i, ptr %m_ref_count.i.i, align 4
  %cmp.i = icmp eq i32 %dec.i.i, 0
  br i1 %cmp.i, label %if.then2.i, label %_ZN11ast_manager7dec_refEP3ast.exit

if.then2.i:                                       ; preds = %if.then.i
  tail call void @_ZN11ast_manager11delete_nodeEP3ast(ptr noundef nonnull align 8 dereferenceable(976) %0, ptr noundef nonnull %1)
  br label %_ZN11ast_manager7dec_refEP3ast.exit

_ZN11ast_manager7dec_refEP3ast.exit:              ; preds = %entry, %if.then.i, %if.then2.i
  %3 = load ptr, ptr %m_manager, align 8
  %m_atom = getelementptr inbounds i8, ptr %this, i64 32
  %4 = load ptr, ptr %m_atom, align 8
  %tobool.not.i1 = icmp eq ptr %4, null
  br i1 %tobool.not.i1, label %_ZN11ast_manager7dec_refEP3ast.exit7, label %if.then.i2

if.then.i2:                                       ; preds = %_ZN11ast_manager7dec_refEP3ast.exit
  %m_ref_count.i.i3 = getelementptr inbounds i8, ptr %4, i64 8
  %5 = load i32, ptr %m_ref_count.i.i3, align 4
  %dec.i.i4 = add i32 %5, -1
  store i32 %dec.i.i4, ptr %m_ref_count.i.i3, align 4
  %cmp.i5 = icmp eq i32 %dec.i.i4, 0
  br i1 %cmp.i5, label %if.then2.i6, label %_ZN11ast_manager7dec_refEP3ast.exit7

if.then2.i6:                                      ; preds = %if.then.i2
  tail call void @_ZN11ast_manager11delete_nodeEP3ast(ptr noundef nonnull align 8 dereferenceable(976) %3, ptr noundef nonnull %4)
  br label %_ZN11ast_manager7dec_refEP3ast.exit7

_ZN11ast_manager7dec_refEP3ast.exit7:             ; preds = %_ZN11ast_manager7dec_refEP3ast.exit, %if.then.i2, %if.then2.i6
  %6 = load ptr, ptr %m_manager, align 8
  %m_nil = getelementptr inbounds i8, ptr %this, i64 40
  %7 = load ptr, ptr %m_nil, align 8
  %tobool.not.i8 = icmp eq ptr %7, null
  br i1 %tobool.not.i8, label %_ZN11ast_manager7dec_refEP3ast.exit14, label %if.then.i9

if.then.i9:                                       ; preds = %_ZN11ast_manager7dec_refEP3ast.exit7
  %m_ref_count.i.i10 = getelementptr inbounds i8, ptr %7, i64 8
  %8 = load i32, ptr %m_ref_count.i.i10, align 4
  %dec.i.i11 = add i32 %8, -1
  store i32 %dec.i.i11, ptr %m_ref_count.i.i10, align 4
  %cmp.i12 = icmp eq i32 %dec.i.i11, 0
  br i1 %cmp.i12, label %if.then2.i13, label %_ZN11ast_manager7dec_refEP3ast.exit14

if.then2.i13:                                     ; preds = %if.then.i9
  tail call void @_ZN11ast_manager11delete_nodeEP3ast(ptr noundef nonnull align 8 dereferenceable(976) %6, ptr noundef nonnull %7)
  br label %_ZN11ast_manager7dec_refEP3ast.exit14

_ZN11ast_manager7dec_refEP3ast.exit14:            ; preds = %_ZN11ast_manager7dec_refEP3ast.exit7, %if.then.i9, %if.then2.i13
  %9 = load ptr, ptr %m_manager, align 8
  %m_cell = getelementptr inbounds i8, ptr %this, i64 48
  %10 = load ptr, ptr %m_cell, align 8
  %tobool.not.i15 = icmp eq ptr %10, null
  br i1 %tobool.not.i15, label %_ZN11ast_manager7dec_refEP3ast.exit21, label %if.then.i16

if.then.i16:                                      ; preds = %_ZN11ast_manager7dec_refEP3ast.exit14
  %m_ref_count.i.i17 = getelementptr inbounds i8, ptr %10, i64 8
  %11 = load i32, ptr %m_ref_count.i.i17, align 4
  %dec.i.i18 = add i32 %11, -1
  store i32 %dec.i.i18, ptr %m_ref_count.i.i17, align 4
  %cmp.i19 = icmp eq i32 %dec.i.i18, 0
  br i1 %cmp.i19, label %if.then2.i20, label %_ZN11ast_manager7dec_refEP3ast.exit21

if.then2.i20:                                     ; preds = %if.then.i16
  tail call void @_ZN11ast_manager11delete_nodeEP3ast(ptr noundef nonnull align 8 dereferenceable(976) %9, ptr noundef nonnull %10)
  br label %_ZN11ast_manager7dec_refEP3ast.exit21

_ZN11ast_manager7dec_refEP3ast.exit21:            ; preds = %_ZN11ast_manager7dec_refEP3ast.exit14, %if.then.i16, %if.then2.i20
  ret void
}